target datalayout = "e-m:e-p270:32:32-p271:32:32-p272:64:64-i64:64-i128:128-f80:128-n8:16:32:64-S128"
target triple = "x86_64-pc-linux-gnu"

%struct._wmem_map_t = type { i32, i64, ptr, ptr, ptr, i32, i32, ptr, ptr }
%struct._wmem_map_item_t = type { ptr, ptr, ptr }

; Function Attrs: null_pointer_is_valid sspstrong uwtable
define ptr @wmem_map_get_keys(ptr noundef %0, ptr noundef %1) #0 {
  %3 = alloca ptr, align 8
  %4 = alloca ptr, align 8
  %5 = alloca i64, align 8
  %6 = alloca i64, align 8
  %7 = alloca ptr, align 8
  %8 = alloca ptr, align 8
  store ptr %0, ptr %3, align 8
  store ptr %1, ptr %4, align 8
  call void @llvm.lifetime.start.p0(i64 8, ptr %5) #8
  call void @llvm.lifetime.start.p0(i64 8, ptr %6) #8
  call void @llvm.lifetime.start.p0(i64 8, ptr %7) #8
  call void @llvm.lifetime.start.p0(i64 8, ptr %8) #8
  %9 = load ptr, ptr %3, align 8
  %10 = call noalias ptr @wmem_list_new(ptr noundef %9)
  store ptr %10, ptr %8, align 8
  %11 = load ptr, ptr %4, align 8
  %12 = getelementptr inbounds nuw %struct._wmem_map_t, ptr %11, i32 0, i32 2
  %13 = load ptr, ptr %12, align 8
  %14 = icmp ne ptr %13, null
  br i1 %14, label %15, label %47

15:                                               ; preds = %2
  %16 = load ptr, ptr %4, align 8
  %17 = getelementptr inbounds nuw %struct._wmem_map_t, ptr %16, i32 0, i32 1
  %18 = load i64, ptr %17, align 8
  %19 = shl i64 1, %18
  store i64 %19, ptr %5, align 8
  store i64 0, ptr %6, align 8
  br label %20

20:                                               ; preds = %43, %15
  %21 = load i64, ptr %6, align 8
  %22 = load i64, ptr %5, align 8
  %23 = icmp ult i64 %21, %22
  br i1 %23, label %24, label %46

24:                                               ; preds = %20
  %25 = load ptr, ptr %4, align 8
  %26 = getelementptr inbounds nuw %struct._wmem_map_t, ptr %25, i32 0, i32 2
  %27 = load ptr, ptr %26, align 8
  %28 = load i64, ptr %6, align 8
  %29 = getelementptr ptr, ptr %27, i64 %28
  %30 = load ptr, ptr %29, align 8
  store ptr %30, ptr %7, align 8
  br label %31

31:                                               ; preds = %34, %24
  %32 = load ptr, ptr %7, align 8
  %33 = icmp ne ptr %32, null
  br i1 %33, label %34, label %42

34:                                               ; preds = %31
  %35 = load ptr, ptr %8, align 8
  %36 = load ptr, ptr %7, align 8
  %37 = getelementptr inbounds nuw %struct._wmem_map_item_t, ptr %36, i32 0, i32 0
  %38 = load ptr, ptr %37, align 8
  call void @wmem_list_prepend(ptr noundef %35, ptr noundef %38)
  %39 = load ptr, ptr %7, align 8
  %40 = getelementptr inbounds nuw %struct._wmem_map_item_t, ptr %39, i32 0, i32 2
  %41 = load ptr, ptr %40, align 8
  store ptr %41, ptr %7, align 8
  br label %31, !llvm.loop !15

42:                                               ; preds = %31
  br label %43

43:                                               ; preds = %42
  %44 = load i64, ptr %6, align 8
  %45 = add i64 %44, 1
  store i64 %45, ptr %6, align 8
  br label %20, !llvm.loop !16

46:                                               ; preds = %20
  br label %47

47:                                               ; preds = %46, %2
  %48 = load ptr, ptr %8, align 8
  call void @llvm.lifetime.end.p0(i64 8, ptr %8) #8
  call void @llvm.lifetime.end.p0(i64 8, ptr %7) #8
  call void @llvm.lifetime.end.p0(i64 8, ptr %6) #8
  call void @llvm.lifetime.end.p0(i64 8, ptr %5) #8
  ret ptr %48
}