; Function Attrs: null_pointer_is_valid sspstrong uwtable
define ptr @wmem_map_get_keys(ptr noundef %0, ptr noundef readonly captures(none) %1) local_unnamed_addr #0 {
  %3 = tail call noalias ptr @wmem_list_new(ptr noundef %0)
  %4 = getelementptr inbounds nuw i8, ptr %1, i64 16
  %5 = load ptr, ptr %4, align 8
  %.not = icmp eq ptr %5, null
  br i1 %.not, label %.loopexit, label %6

6:                                                ; preds = %2
  %7 = getelementptr inbounds nuw i8, ptr %1, i64 8
  %8 = load i64, ptr %7, align 8
  br label %9

9:                                                ; preds = %6, %._crit_edge
  %.017 = phi i64 [ 0, %6 ], [ %14, %._crit_edge ]
  %10 = load ptr, ptr %4, align 8
  %11 = getelementptr ptr, ptr %10, i64 %.017
  %.01214 = load ptr, ptr %11, align 8
  %.not1315 = icmp eq ptr %.01214, null
  br i1 %.not1315, label %._crit_edge, label %.lr.ph

.lr.ph:                                           ; preds = %9, %.lr.ph
  %.01216 = phi ptr [ %.012, %.lr.ph ], [ %.01214, %9 ]
  %12 = load ptr, ptr %.01216, align 8
  tail call void @wmem_list_prepend(ptr noundef %3, ptr noundef %12)
  %13 = getelementptr inbounds nuw i8, ptr %.01216, i64 16
  %.012 = load ptr, ptr %13, align 8
  %.not13 = icmp eq ptr %.012, null
  br i1 %.not13, label %._crit_edge, label %.lr.ph, !llvm.loop !16

._crit_edge:                                      ; preds = %.lr.ph, %9
  %14 = add i64 %.017, 1
  %.0.highbits = lshr i64 %14, %8
  %15 = icmp eq i64 %.0.highbits, 0
  br i1 %15, label %9, label %.loopexit, !llvm.loop !17

.loopexit:                                        ; preds = %._crit_edge, %2
  ret ptr %3
}